; Function Attrs: mustprogress uwtable
define dso_local void @_ZN3net14QuicConnection12SetPingAlarmEv(ptr nocapture noundef nonnull readonly align 8 dereferenceable(3372) %this) local_unnamed_addr #0 align 2 {
entry:
  %perspective_ = getelementptr inbounds i8, ptr %this, i64 3204
  %0 = load i32, ptr %perspective_, align 4
  %cmp = icmp eq i32 %0, 0
  br i1 %cmp, label %return, label %if.end

if.end:                                           ; preds = %entry
  %visitor_ = getelementptr inbounds i8, ptr %this, i64 2392
  %1 = load ptr, ptr %visitor_, align 8
  %vtable = load ptr, ptr %1, align 8
  %vfn = getelementptr inbounds i8, ptr %vtable, i64 136
  %2 = load ptr, ptr %vfn, align 8
  %call = tail call noundef zeroext i1 %2(ptr noundef nonnull align 8 dereferenceable(8) %1)
  %ping_alarm_5 = getelementptr inbounds i8, ptr %this, i64 2376
  %3 = load ptr, ptr %ping_alarm_5, align 8
  %4 = ptrtoint ptr %3 to i64
  %and.i.i1 = and i64 %4, -2
  %5 = inttoptr i64 %and.i.i1 to ptr
  br i1 %call, label %if.end4, label %if.then2

if.then2:                                         ; preds = %if.end
  tail call void @_ZN3net9QuicAlarm6CancelEv(ptr noundef nonnull align 8 dereferenceable(24) %5)
  br label %return

if.end4:                                          ; preds = %if.end
  %clock_ = getelementptr inbounds i8, ptr %this, i64 480
  %6 = load ptr, ptr %clock_, align 8
  %vtable8 = load ptr, ptr %6, align 8
  %vfn9 = getelementptr inbounds i8, ptr %vtable8, i64 16
  %7 = load ptr, ptr %vfn9, align 8
  %call10 = tail call i64 %7(ptr noundef nonnull align 8 dereferenceable(8) %6)
  %agg.tmp11.sroa.2.0.ping_timeout_.sroa_idx = getelementptr inbounds i8, ptr %this, i64 1296
  %agg.tmp11.sroa.2.0.copyload = load i64, ptr %agg.tmp11.sroa.2.0.ping_timeout_.sroa_idx, align 8
  %add.i = add nsw i64 %agg.tmp11.sroa.2.0.copyload, %call10
  tail call void @_ZN3net9QuicAlarm6UpdateENS_8QuicTimeENS1_5DeltaE(ptr noundef nonnull align 8 dereferenceable(24) %5, i64 %add.i, i64 0, i64 1000000)
  br label %return

return:                                           ; preds = %entry, %if.end4, %if.then2
  ret void
}